target datalayout = "e-m:e-p270:32:32-p271:32:32-p272:64:64-i64:64-i128:128-f80:128-n8:16:32:64-S128"
target triple = "x86_64-pc-linux-gnu"

%"struct.cv::details::Chessboard::Board::Cell" = type <{ ptr, ptr, ptr, ptr, ptr, ptr, ptr, ptr, i8, i8, [6 x i8] }>

; Function Attrs: mustprogress nounwind uwtable
define hidden noundef i32 @_ZNK2cv7details10Chessboard5Board4Cell6getRowEv(ptr noundef nonnull align 8 dereferenceable(66) %0) #7 align 2 {
  %2 = alloca ptr, align 8
  %3 = alloca i32, align 4
  %4 = alloca ptr, align 8
  store ptr %0, ptr %2, align 8, !tbaa !214
  %5 = load ptr, ptr %2, align 8
  call void @llvm.lifetime.start.p0(i64 4, ptr %3) #3
  store i32 0, ptr %3, align 4, !tbaa !3
  call void @llvm.lifetime.start.p0(i64 8, ptr %4) #3
  store ptr %5, ptr %4, align 8, !tbaa !214
  br label %6

6:                                                ; preds = %12, %1
  %7 = load ptr, ptr %4, align 8, !tbaa !214
  %8 = getelementptr inbounds nuw %"struct.cv::details::Chessboard::Board::Cell", ptr %7, i32 0, i32 5
  %9 = load ptr, ptr %8, align 8, !tbaa !221
  %10 = icmp ne ptr %9, null
  br i1 %10, label %11, label %18

11:                                               ; preds = %6
  br label %12

12:                                               ; preds = %11
  %13 = load ptr, ptr %4, align 8, !tbaa !214
  %14 = getelementptr inbounds nuw %"struct.cv::details::Chessboard::Board::Cell", ptr %13, i32 0, i32 5
  %15 = load ptr, ptr %14, align 8, !tbaa !221
  store ptr %15, ptr %4, align 8, !tbaa !214
  %16 = load i32, ptr %3, align 4, !tbaa !3
  %17 = add nsw i32 %16, 1
  store i32 %17, ptr %3, align 4, !tbaa !3
  br label %6, !llvm.loop !222

18:                                               ; preds = %6
  %19 = load i32, ptr %3, align 4, !tbaa !3
  call void @llvm.lifetime.end.p0(i64 8, ptr %4) #3
  call void @llvm.lifetime.end.p0(i64 4, ptr %3) #3
  ret i32 %19
}